(dp0
S'servers'
p1
(lp2
(lp3
VCryoLand
p4
aVhttp://neso.cryoland.enveo.at/cryoland/ows?
p5
aa(lp6
VDream-instance00
p7
aVhttp://data.eox.at/instance00/ows?
p8
aa(lp9
Vaaaaa
p10
aVnnnnnn
p11
aa(lp12
V565656
p13
aV90909090
p14
aa(lp15
Vooooo
p16
aVppppppp
p17
aa(lp18
VNames
p19
aVURLS
p20
aa(lp21
VName222
p22
aVurl2222
p23
aa(lp24
VnewName
p25
aVnewUrl
p26
aa(lp27
VnewName444
p28
aVnewUrl444
p29
aa(lp30
V1111
p31
aV444400000
p32
aa(lp33
V787878
p34
aVjkjkjkj
p35
aa(lp36
Vsomething
p37
aVother
p38
aa(lp39
V333eee
p40
aV666ggg
p41
aa(lp42
Vanothe 
p43
aVone4test
p44
aa(lp45
Vand again
p46
aVsomething test
p47
aa(lp48
Vand some more
p49
aVand some more
p50
aa(lp51
Vsome_more_test
p52
aVfor_edit_button
p53
aa(lp54
Vand an another one
p55
aVof these tests
p56
aa(lp57
Vand an another one
p58
aVof these tests- finally working
p59
aa(lp60
Vand an another one
p61
aVof these tests- finally working22
p62
aa(lp63
V51234r567
p64
aVadsfg6543rfgg
p65
aa(lp66
V333eee4444
p67
aV666ggg4444
p68
aas.