(dp0
S'servers'
p1
(lp2
(lp3
VDream-instance00
p4
aVhttp://data.eox.at/instance00/ows?
p5
aa(lp6
VCryoLand
p7
aVhttp://neso.cryoland.enveo.at/cryoland/ows?
p8
aa(lp9
VEarthserver
p10
aVhttp://earthserver.eox.at/rasdaman?
p11
aa(lp12
VEarthServer-Beta
p13
aVhttp://earthserver.eox.at/beta-rasdaman?
p14
aas.