(dp0
S'servers'
p1
(lp2
(lp3
VOGC: WCS 2.0/EO-WCS 1.0 - Reference Implemetation (EOxServer)
p4
aVhttp://ows.eox.at/cite/ows?
p5
aa(lp6
VOGC: WCS 2.0 - Reference Implementation (MapServer)
p7
aVhttp://ows.eox.at/cite-wcs?
p8
aas.